; ModuleID = '32/57.c'
source_filename = "32/57.c"
target datalayout = "e-m:e-p270:32:32-p271:32:32-p272:64:64-i64:64-f80:128-n8:16:32:64-S128"
target triple = "x86_64-pc-linux-gnu"

@.str = private unnamed_addr constant [3 x i8] c"%d\00", align 1
@.str.1 = private unnamed_addr constant [3 x i8] c"%s\00", align 1
@.str.2 = private unnamed_addr constant [3 x i8] c"%c\00", align 1
@.str.3 = private unnamed_addr constant [2 x i8] c"\0A\00", align 1

; Function Attrs: noinline nounwind uwtable
define dso_local i32 @main() #0 {
  %1 = alloca i32, align 4
  %2 = alloca i32, align 4
  %3 = alloca [101 x i8], align 16
  %4 = alloca [101 x i8], align 16
  %5 = alloca i8**, align 8
  %6 = alloca i32, align 4
  %7 = alloca i32, align 4
  %8 = alloca i32, align 4
  %9 = alloca i32, align 4
  %10 = alloca i32, align 4
  %11 = alloca i32, align 4
  %12 = alloca i32, align 4
  %13 = alloca i32, align 4
  store i32 0, i32* %1, align 4
  %14 = call i32 (i8*, ...) @__isoc99_scanf(i8* getelementptr inbounds ([3 x i8], [3 x i8]* @.str, i64 0, i64 0), i32* %2)
  %15 = load i32, i32* %2, align 4
  %16 = sext i32 %15 to i64
  %17 = mul i64 %16, 8
  %18 = call noalias i8* @malloc(i64 %17) #4
  %19 = bitcast i8* %18 to i8**
  store i8** %19, i8*** %5, align 8
  store i32 0, i32* %6, align 4
  br label %20

20:                                               ; preds = %124, %0
  %21 = load i32, i32* %6, align 4
  %22 = load i32, i32* %2, align 4
  %23 = icmp slt i32 %21, %22
  br i1 %23, label %24, label %127

24:                                               ; preds = %20
  %25 = getelementptr inbounds [101 x i8], [101 x i8]* %3, i64 0, i64 0
  call void @gui0(i8* %25, i32 101)
  %26 = getelementptr inbounds [101 x i8], [101 x i8]* %4, i64 0, i64 0
  call void @gui0(i8* %26, i32 101)
  %27 = getelementptr inbounds [101 x i8], [101 x i8]* %3, i64 0, i64 0
  %28 = call i32 (i8*, ...) @__isoc99_scanf(i8* getelementptr inbounds ([3 x i8], [3 x i8]* @.str.1, i64 0, i64 0), i8* %27)
  %29 = getelementptr inbounds [101 x i8], [101 x i8]* %4, i64 0, i64 0
  %30 = call i32 (i8*, ...) @__isoc99_scanf(i8* getelementptr inbounds ([3 x i8], [3 x i8]* @.str.1, i64 0, i64 0), i8* %29)
  %31 = getelementptr inbounds [101 x i8], [101 x i8]* %3, i64 0, i64 0
  %32 = call i64 @strlen(i8* %31) #5
  %33 = trunc i64 %32 to i32
  store i32 %33, i32* %7, align 4
  %34 = getelementptr inbounds [101 x i8], [101 x i8]* %4, i64 0, i64 0
  %35 = call i64 @strlen(i8* %34) #5
  %36 = trunc i64 %35 to i32
  store i32 %36, i32* %8, align 4
  %37 = load i32, i32* %8, align 4
  %38 = sub nsw i32 %37, 1
  store i32 %38, i32* %9, align 4
  %39 = load i32, i32* %7, align 4
  %40 = sub nsw i32 %39, 1
  store i32 %40, i32* %10, align 4
  br label %41

41:                                               ; preds = %108, %24
  %42 = load i32, i32* %10, align 4
  %43 = load i32, i32* %7, align 4
  %44 = load i32, i32* %8, align 4
  %45 = sub nsw i32 %43, %44
  %46 = icmp sge i32 %42, %45
  br i1 %46, label %47, label %111

47:                                               ; preds = %41
  %48 = load i32, i32* %9, align 4
  %49 = sext i32 %48 to i64
  %50 = getelementptr inbounds [101 x i8], [101 x i8]* %4, i64 0, i64 %49
  %51 = load i8, i8* %50, align 1
  %52 = sext i8 %51 to i32
  %53 = load i32, i32* %10, align 4
  %54 = sext i32 %53 to i64
  %55 = getelementptr inbounds [101 x i8], [101 x i8]* %3, i64 0, i64 %54
  %56 = load i8, i8* %55, align 1
  %57 = sext i8 %56 to i32
  %58 = icmp sle i32 %52, %57
  br i1 %58, label %59, label %76

59:                                               ; preds = %47
  %60 = load i32, i32* %10, align 4
  %61 = sext i32 %60 to i64
  %62 = getelementptr inbounds [101 x i8], [101 x i8]* %3, i64 0, i64 %61
  %63 = load i8, i8* %62, align 1
  %64 = sext i8 %63 to i32
  %65 = load i32, i32* %9, align 4
  %66 = sext i32 %65 to i64
  %67 = getelementptr inbounds [101 x i8], [101 x i8]* %4, i64 0, i64 %66
  %68 = load i8, i8* %67, align 1
  %69 = sext i8 %68 to i32
  %70 = sub nsw i32 %64, %69
  %71 = add nsw i32 %70, 48
  %72 = trunc i32 %71 to i8
  %73 = load i32, i32* %10, align 4
  %74 = sext i32 %73 to i64
  %75 = getelementptr inbounds [101 x i8], [101 x i8]* %3, i64 0, i64 %74
  store i8 %72, i8* %75, align 1
  br label %101

76:                                               ; preds = %47
  %77 = load i32, i32* %10, align 4
  %78 = sub nsw i32 %77, 1
  %79 = sext i32 %78 to i64
  %80 = getelementptr inbounds [101 x i8], [101 x i8]* %3, i64 0, i64 %79
  %81 = load i8, i8* %80, align 1
  %82 = add i8 %81, -1
  store i8 %82, i8* %80, align 1
  %83 = load i32, i32* %10, align 4
  %84 = sext i32 %83 to i64
  %85 = getelementptr inbounds [101 x i8], [101 x i8]* %3, i64 0, i64 %84
  %86 = load i8, i8* %85, align 1
  %87 = sext i8 %86 to i32
  %88 = load i32, i32* %9, align 4
  %89 = sext i32 %88 to i64
  %90 = getelementptr inbounds [101 x i8], [101 x i8]* %4, i64 0, i64 %89
  %91 = load i8, i8* %90, align 1
  %92 = sext i8 %91 to i32
  %93 = sub nsw i32 %87, %92
  %94 = add nsw i32 %93, 10
  store i32 %94, i32* %11, align 4
  %95 = load i32, i32* %11, align 4
  %96 = add nsw i32 48, %95
  %97 = trunc i32 %96 to i8
  %98 = load i32, i32* %10, align 4
  %99 = sext i32 %98 to i64
  %100 = getelementptr inbounds [101 x i8], [101 x i8]* %3, i64 0, i64 %99
  store i8 %97, i8* %100, align 1
  br label %101

101:                                              ; preds = %76, %59
  %102 = load i32, i32* %9, align 4
  %103 = add nsw i32 %102, -1
  store i32 %103, i32* %9, align 4
  %104 = load i32, i32* %9, align 4
  %105 = icmp slt i32 %104, 0
  br i1 %105, label %106, label %107

106:                                              ; preds = %101
  br label %111

107:                                              ; preds = %101
  br label %108

108:                                              ; preds = %107
  %109 = load i32, i32* %10, align 4
  %110 = add nsw i32 %109, -1
  store i32 %110, i32* %10, align 4
  br label %41

111:                                              ; preds = %106, %41
  %112 = call noalias i8* @malloc(i64 101) #4
  %113 = load i8**, i8*** %5, align 8
  %114 = load i32, i32* %6, align 4
  %115 = sext i32 %114 to i64
  %116 = getelementptr inbounds i8*, i8** %113, i64 %115
  store i8* %112, i8** %116, align 8
  %117 = load i8**, i8*** %5, align 8
  %118 = load i32, i32* %6, align 4
  %119 = sext i32 %118 to i64
  %120 = getelementptr inbounds i8*, i8** %117, i64 %119
  %121 = load i8*, i8** %120, align 8
  %122 = getelementptr inbounds [101 x i8], [101 x i8]* %3, i64 0, i64 0
  %123 = call i8* @strcpy(i8* %121, i8* %122) #4
  br label %124

124:                                              ; preds = %111
  %125 = load i32, i32* %6, align 4
  %126 = add nsw i32 %125, 1
  store i32 %126, i32* %6, align 4
  br label %20

127:                                              ; preds = %20
  store i32 0, i32* %12, align 4
  br label %128

128:                                              ; preds = %188, %127
  %129 = load i32, i32* %12, align 4
  %130 = load i32, i32* %2, align 4
  %131 = icmp slt i32 %129, %130
  br i1 %131, label %132, label %191

132:                                              ; preds = %128
  store i32 0, i32* %13, align 4
  br label %133

133:                                              ; preds = %157, %132
  %134 = load i32, i32* %13, align 4
  %135 = sext i32 %134 to i64
  %136 = load i8**, i8*** %5, align 8
  %137 = load i32, i32* %12, align 4
  %138 = sext i32 %137 to i64
  %139 = getelementptr inbounds i8*, i8** %136, i64 %138
  %140 = load i8*, i8** %139, align 8
  %141 = call i64 @strlen(i8* %140) #5
  %142 = icmp ult i64 %135, %141
  br i1 %142, label %143, label %160

143:                                              ; preds = %133
  %144 = load i8**, i8*** %5, align 8
  %145 = load i32, i32* %12, align 4
  %146 = sext i32 %145 to i64
  %147 = getelementptr inbounds i8*, i8** %144, i64 %146
  %148 = load i8*, i8** %147, align 8
  %149 = load i32, i32* %13, align 4
  %150 = sext i32 %149 to i64
  %151 = getelementptr inbounds i8, i8* %148, i64 %150
  %152 = load i8, i8* %151, align 1
  %153 = sext i8 %152 to i32
  %154 = icmp eq i32 %153, 48
  br i1 %154, label %155, label %156

155:                                              ; preds = %143
  br label %157

156:                                              ; preds = %143
  br label %160

157:                                              ; preds = %155
  %158 = load i32, i32* %13, align 4
  %159 = add nsw i32 %158, 1
  store i32 %159, i32* %13, align 4
  br label %133

160:                                              ; preds = %156, %133
  br label %161

161:                                              ; preds = %183, %160
  %162 = load i32, i32* %13, align 4
  %163 = sext i32 %162 to i64
  %164 = load i8**, i8*** %5, align 8
  %165 = load i32, i32* %12, align 4
  %166 = sext i32 %165 to i64
  %167 = getelementptr inbounds i8*, i8** %164, i64 %166
  %168 = load i8*, i8** %167, align 8
  %169 = call i64 @strlen(i8* %168) #5
  %170 = icmp ult i64 %163, %169
  br i1 %170, label %171, label %186

171:                                              ; preds = %161
  %172 = load i8**, i8*** %5, align 8
  %173 = load i32, i32* %12, align 4
  %174 = sext i32 %173 to i64
  %175 = getelementptr inbounds i8*, i8** %172, i64 %174
  %176 = load i8*, i8** %175, align 8
  %177 = load i32, i32* %13, align 4
  %178 = sext i32 %177 to i64
  %179 = getelementptr inbounds i8, i8* %176, i64 %178
  %180 = load i8, i8* %179, align 1
  %181 = sext i8 %180 to i32
  %182 = call i32 (i8*, ...) @printf(i8* getelementptr inbounds ([3 x i8], [3 x i8]* @.str.2, i64 0, i64 0), i32 %181)
  br label %183

183:                                              ; preds = %171
  %184 = load i32, i32* %13, align 4
  %185 = add nsw i32 %184, 1
  store i32 %185, i32* %13, align 4
  br label %161

186:                                              ; preds = %161
  %187 = call i32 (i8*, ...) @printf(i8* getelementptr inbounds ([2 x i8], [2 x i8]* @.str.3, i64 0, i64 0))
  br label %188

188:                                              ; preds = %186
  %189 = load i32, i32* %12, align 4
  %190 = add nsw i32 %189, 1
  store i32 %190, i32* %12, align 4
  br label %128

191:                                              ; preds = %128
  ret i32 0
}

declare dso_local i32 @__isoc99_scanf(i8*, ...) #1

; Function Attrs: nounwind
declare dso_local noalias i8* @malloc(i64) #2

; Function Attrs: noinline nounwind uwtable
define dso_local void @gui0(i8* %0, i32 %1) #0 {
  %3 = alloca i8*, align 8
  %4 = alloca i32, align 4
  %5 = alloca i32, align 4
  store i8* %0, i8** %3, align 8
  store i32 %1, i32* %4, align 4
  store i32 0, i32* %5, align 4
  br label %6

6:                                                ; preds = %15, %2
  %7 = load i32, i32* %5, align 4
  %8 = load i32, i32* %4, align 4
  %9 = icmp slt i32 %7, %8
  br i1 %9, label %10, label %18

10:                                               ; preds = %6
  %11 = load i8*, i8** %3, align 8
  %12 = load i32, i32* %5, align 4
  %13 = sext i32 %12 to i64
  %14 = getelementptr inbounds i8, i8* %11, i64 %13
  store i8 0, i8* %14, align 1
  br label %15

15:                                               ; preds = %10
  %16 = load i32, i32* %5, align 4
  %17 = add nsw i32 %16, 1
  store i32 %17, i32* %5, align 4
  br label %6

18:                                               ; preds = %6
  ret void
}

; Function Attrs: nounwind readonly
declare dso_local i64 @strlen(i8*) #3

; Function Attrs: nounwind
declare dso_local i8* @strcpy(i8*, i8*) #2

declare dso_local i32 @printf(i8*, ...) #1


!llvm.module.flags = !{!0}
!llvm.ident = !{!1}

!0 = !{i32 1, !"wchar_size", i32 4}
!1 = !{!"clang version 10.0.0-4ubuntu1 "}
